target datalayout = "e-m:e-p270:32:32-p271:32:32-p272:64:64-i64:64-i128:128-f80:128-n8:16:32:64-S128"
target triple = "x86_64-pc-linux-gnu"

%class.TreeNodeData = type <{ i32, i8, [3 x i8] }>
%class.OctNode = type { i64, ptr, ptr, %class.TreeNodeData }

; Function Attrs: mustprogress nounwind uwtable
define noundef i64 @_ZN10VertexData14CornerIndexKeyEPKi(ptr noundef %0) #4 align 2 {
  %2 = alloca ptr, align 8
  store ptr %0, ptr %2, align 8
  %3 = load ptr, ptr %2, align 8
  %4 = getelementptr inbounds i32, ptr %3, i64 0
  %5 = load i32, ptr %4, align 4
  %6 = sext i32 %5 to i64
  %7 = load ptr, ptr %2, align 8
  %8 = getelementptr inbounds i32, ptr %7, i64 1
  %9 = load i32, ptr %8, align 4
  %10 = sext i32 %9 to i64
  %11 = shl i64 %10, 21
  %12 = or i64 %6, %11
  %13 = load ptr, ptr %2, align 8
  %14 = getelementptr inbounds i32, ptr %13, i64 2
  %15 = load i32, ptr %14, align 4
  %16 = sext i32 %15 to i64
  %17 = shl i64 %16, 42
  %18 = or i64 %12, %17
  ret i64 %18
}

; Function Attrs: mustprogress nounwind uwtable
define linkonce_odr noundef i32 @_ZN10BinaryNode11CornerIndexEiiii(i32 noundef %0, i32 noundef %1, i32 noundef %2, i32 noundef %3) #4 comdat align 2 {
  %5 = alloca i32, align 4
  %6 = alloca i32, align 4
  %7 = alloca i32, align 4
  %8 = alloca i32, align 4
  store i32 %0, ptr %5, align 4
  store i32 %1, ptr %6, align 4
  store i32 %2, ptr %7, align 4
  store i32 %3, ptr %8, align 4
  %9 = load i32, ptr %7, align 4
  %10 = load i32, ptr %8, align 4
  %11 = add nsw i32 %9, %10
  %12 = load i32, ptr %5, align 4
  %13 = load i32, ptr %6, align 4
  %14 = sub nsw i32 %12, %13
  %15 = shl i32 %11, %14
  ret i32 %15
}

; Function Attrs: mustprogress nounwind uwtable
define linkonce_odr void @_ZNK7OctNodeI12TreeNodeDataE14depthAndOffsetERiPi(ptr noundef nonnull align 8 dereferenceable(32) %0, ptr noundef nonnull align 4 dereferenceable(4) %1, ptr noundef %2) #4 comdat align 2 {
  %4 = alloca ptr, align 8
  %5 = alloca ptr, align 8
  %6 = alloca ptr, align 8
  store ptr %0, ptr %4, align 8
  store ptr %1, ptr %5, align 8
  store ptr %2, ptr %6, align 8
  %7 = load ptr, ptr %4, align 8
  %8 = getelementptr inbounds %class.OctNode, ptr %7, i32 0, i32 0
  %9 = load i64, ptr %8, align 8
  %10 = and i64 %9, 31
  %11 = trunc i64 %10 to i32
  %12 = load ptr, ptr %5, align 8
  store i32 %11, ptr %12, align 4
  %13 = getelementptr inbounds %class.OctNode, ptr %7, i32 0, i32 0
  %14 = load i64, ptr %13, align 8
  %15 = lshr i64 %14, 5
  %16 = and i64 %15, 524287
  %17 = trunc i64 %16 to i32
  %18 = load ptr, ptr %6, align 8
  %19 = getelementptr inbounds i32, ptr %18, i64 0
  store i32 %17, ptr %19, align 4
  %20 = getelementptr inbounds %class.OctNode, ptr %7, i32 0, i32 0
  %21 = load i64, ptr %20, align 8
  %22 = lshr i64 %21, 24
  %23 = and i64 %22, 524287
  %24 = trunc i64 %23 to i32
  %25 = load ptr, ptr %6, align 8
  %26 = getelementptr inbounds i32, ptr %25, i64 1
  store i32 %24, ptr %26, align 4
  %27 = getelementptr inbounds %class.OctNode, ptr %7, i32 0, i32 0
  %28 = load i64, ptr %27, align 8
  %29 = lshr i64 %28, 43
  %30 = and i64 %29, 524287
  %31 = trunc i64 %30 to i32
  %32 = load ptr, ptr %6, align 8
  %33 = getelementptr inbounds i32, ptr %32, i64 2
  store i32 %31, ptr %33, align 4
  ret void
}

; Function Attrs: mustprogress uwtable
define noundef i64 @_ZN10VertexData11CornerIndexEPK7OctNodeI12TreeNodeDataEiiPi(ptr noundef %0, i32 noundef %1, i32 noundef %2, ptr noundef %3) #5 align 2 {
  %5 = alloca ptr, align 8
  %6 = alloca i32, align 4
  %7 = alloca i32, align 4
  %8 = alloca ptr, align 8
  %9 = alloca [3 x i32], align 4
  %10 = alloca i32, align 4
  %11 = alloca [3 x i32], align 4
  %12 = alloca i32, align 4
  store ptr %0, ptr %5, align 8
  store i32 %1, ptr %6, align 4
  store i32 %2, ptr %7, align 4
  store ptr %3, ptr %8, align 8
  %13 = load i32, ptr %6, align 4
  %14 = getelementptr inbounds [3 x i32], ptr %9, i64 0, i64 0
  %15 = getelementptr inbounds [3 x i32], ptr %9, i64 0, i64 1
  %16 = getelementptr inbounds [3 x i32], ptr %9, i64 0, i64 2
  call void @_ZN4Cube17FactorCornerIndexEiRiS0_S0_(i32 noundef %13, ptr noundef nonnull align 4 dereferenceable(4) %14, ptr noundef nonnull align 4 dereferenceable(4) %15, ptr noundef nonnull align 4 dereferenceable(4) %16)
  %17 = load ptr, ptr %5, align 8
  %18 = getelementptr inbounds [3 x i32], ptr %11, i64 0, i64 0
  call void @_ZNK7OctNodeI12TreeNodeDataE14depthAndOffsetERiPi(ptr noundef nonnull align 8 dereferenceable(32) %17, ptr noundef nonnull align 4 dereferenceable(4) %10, ptr noundef %18)
  store i32 0, ptr %12, align 4
  br label %19

19:                                               ; preds = %39, %4
  %20 = load i32, ptr %12, align 4
  %21 = icmp slt i32 %20, 3
  br i1 %21, label %22, label %42

22:                                               ; preds = %19
  %23 = load i32, ptr %7, align 4
  %24 = add nsw i32 %23, 1
  %25 = load i32, ptr %10, align 4
  %26 = load i32, ptr %12, align 4
  %27 = sext i32 %26 to i64
  %28 = getelementptr inbounds [3 x i32], ptr %11, i64 0, i64 %27
  %29 = load i32, ptr %28, align 4
  %30 = load i32, ptr %12, align 4
  %31 = sext i32 %30 to i64
  %32 = getelementptr inbounds [3 x i32], ptr %9, i64 0, i64 %31
  %33 = load i32, ptr %32, align 4
  %34 = call noundef i32 @_ZN10BinaryNode11CornerIndexEiiii(i32 noundef %24, i32 noundef %25, i32 noundef %29, i32 noundef %33)
  %35 = load ptr, ptr %8, align 8
  %36 = load i32, ptr %12, align 4
  %37 = sext i32 %36 to i64
  %38 = getelementptr inbounds i32, ptr %35, i64 %37
  store i32 %34, ptr %38, align 4
  br label %39

39:                                               ; preds = %22
  %40 = load i32, ptr %12, align 4
  %41 = add nsw i32 %40, 1
  store i32 %41, ptr %12, align 4
  br label %19, !llvm.loop !13

42:                                               ; preds = %19
  %43 = load ptr, ptr %8, align 8
  %44 = call noundef i64 @_ZN10VertexData14CornerIndexKeyEPKi(ptr noundef %43)
  ret i64 %44
}