; Function Attrs: mustprogress uwtable
define noundef i64 @_ZN10VertexData11CornerIndexEPK7OctNodeI12TreeNodeDataEiiPi(ptr nocapture noundef readonly %0, i32 noundef %1, i32 noundef %2, ptr nocapture noundef %3) local_unnamed_addr #9 align 2 {
  %5 = alloca [3 x i32], align 4
  %6 = alloca [3 x i32], align 4
  %7 = getelementptr inbounds i8, ptr %5, i64 4
  %8 = getelementptr inbounds i8, ptr %5, i64 8
  call void @_ZN4Cube17FactorCornerIndexEiRiS0_S0_(i32 noundef %1, ptr noundef nonnull align 4 dereferenceable(4) %5, ptr noundef nonnull align 4 dereferenceable(4) %7, ptr noundef nonnull align 4 dereferenceable(4) %8)
  %9 = load i64, ptr %0, align 8
  %10 = trunc i64 %9 to i32
  %11 = and i32 %10, 31
  %12 = lshr i32 %10, 5
  %13 = and i32 %12, 524287
  store i32 %13, ptr %6, align 4
  %14 = lshr i64 %9, 24
  %15 = trunc i64 %14 to i32
  %16 = and i32 %15, 524287
  %17 = getelementptr inbounds i8, ptr %6, i64 4
  store i32 %16, ptr %17, align 4
  %18 = lshr i64 %9, 43
  %19 = trunc i64 %18 to i32
  %20 = and i32 %19, 524287
  %21 = getelementptr inbounds i8, ptr %6, i64 8
  store i32 %20, ptr %21, align 4
  %22 = add nsw i32 %2, 1
  %23 = sub i32 %22, %11
  br label %24

24:                                               ; preds = %4, %24
  %indvars.iv = phi i64 [ 0, %4 ], [ %indvars.iv.next, %24 ]
  %25 = getelementptr inbounds [3 x i32], ptr %6, i64 0, i64 %indvars.iv
  %26 = load i32, ptr %25, align 4
  %27 = getelementptr inbounds [3 x i32], ptr %5, i64 0, i64 %indvars.iv
  %28 = load i32, ptr %27, align 4
  %29 = add nsw i32 %28, %26
  %30 = shl i32 %29, %23
  %31 = getelementptr inbounds i32, ptr %3, i64 %indvars.iv
  store i32 %30, ptr %31, align 4
  %indvars.iv.next = add nuw nsw i64 %indvars.iv, 1
  %exitcond.not = icmp eq i64 %indvars.iv.next, 3
  br i1 %exitcond.not, label %32, label %24, !llvm.loop !12

32:                                               ; preds = %24
  %33 = load i32, ptr %3, align 4
  %34 = sext i32 %33 to i64
  %35 = getelementptr inbounds i8, ptr %3, i64 4
  %36 = load i32, ptr %35, align 4
  %37 = sext i32 %36 to i64
  %38 = shl nsw i64 %37, 21
  %39 = or i64 %38, %34
  %40 = getelementptr inbounds i8, ptr %3, i64 8
  %41 = load i32, ptr %40, align 4
  %42 = zext i32 %41 to i64
  %43 = shl i64 %42, 42
  %44 = or i64 %39, %43
  ret i64 %44
}